target datalayout = "e-m:e-p270:32:32-p271:32:32-p272:64:64-i64:64-i128:128-f80:128-n8:16:32:64-S128"
target triple = "x86_64-pc-linux-gnu"

%"struct.std::pair.930" = type { i32, %"class.std::vector.923" }
%"class.std::vector.923" = type { %"struct.std::_Vector_base.924" }
%"struct.std::_Vector_base.924" = type { %"struct.std::_Vector_base<const rocksdb::(anonymous namespace)::Repairer::TableInfo *, std::allocator<const rocksdb::(anonymous namespace)::Repairer::TableInfo *>>::_Vector_impl" }
%"struct.std::_Vector_base<const rocksdb::(anonymous namespace)::Repairer::TableInfo *, std::allocator<const rocksdb::(anonymous namespace)::Repairer::TableInfo *>>::_Vector_impl" = type { %"struct.std::_Vector_base<const rocksdb::(anonymous namespace)::Repairer::TableInfo *, std::allocator<const rocksdb::(anonymous namespace)::Repairer::TableInfo *>>::_Vector_impl_data" }
%"struct.std::_Vector_base<const rocksdb::(anonymous namespace)::Repairer::TableInfo *, std::allocator<const rocksdb::(anonymous namespace)::Repairer::TableInfo *>>::_Vector_impl_data" = type { ptr, ptr, ptr }
%"struct.std::_Hashtable<unsigned int, std::pair<const unsigned int, std::vector<const rocksdb::(anonymous namespace)::Repairer::TableInfo *>>, std::allocator<std::pair<const unsigned int, std::vector<const rocksdb::(anonymous namespace)::Repairer::TableInfo *>>>, std::__detail::_Select1st, std::equal_to<unsigned int>, std::hash<unsigned int>, std::__detail::_Mod_range_hashing, std::__detail::_Default_ranged_hash, std::__detail::_Prime_rehash_policy, std::__detail::_Hashtable_traits<false, false, true>>::_Scoped_node" = type { ptr, ptr }
%"struct.std::__detail::_Hash_node_value_base.949" = type { %"struct.__gnu_cxx::__aligned_buffer.950" }
%"struct.__gnu_cxx::__aligned_buffer.950" = type { %"union.std::aligned_storage<32, 8>::type" }
%"union.std::aligned_storage<32, 8>::type" = type { [32 x i8] }

; Function Attrs: mustprogress nounwind uwtable
define internal void @_ZNSt15__new_allocatorIPKN7rocksdb12_GLOBAL__N_18Repairer9TableInfoEE10deallocateEPS5_m(ptr noundef nonnull align 1 dereferenceable(1) %0, ptr noundef %1, i64 noundef %2) #5 align 2 {
  %4 = alloca ptr, align 8
  %5 = alloca ptr, align 8
  %6 = alloca i64, align 8
  store ptr %0, ptr %4, align 8, !tbaa !2252
  store ptr %1, ptr %5, align 8, !tbaa !1781
  store i64 %2, ptr %6, align 8, !tbaa !4
  %7 = load ptr, ptr %5, align 8, !tbaa !1781
  %8 = load i64, ptr %6, align 8, !tbaa !4
  %9 = mul i64 %8, 8
  call void @_ZdlPvm(ptr noundef %7, i64 noundef %9) #28
  ret void
}

; Function Attrs: mustprogress uwtable
define internal void @_ZNSt16allocator_traitsISaIPKN7rocksdb12_GLOBAL__N_18Repairer9TableInfoEEE10deallocateERS6_PS5_m(ptr noundef nonnull align 1 dereferenceable(1) %0, ptr noundef %1, i64 noundef %2) #4 align 2 {
  %4 = alloca ptr, align 8
  %5 = alloca ptr, align 8
  %6 = alloca i64, align 8
  store ptr %0, ptr %4, align 8, !tbaa !2245
  store ptr %1, ptr %5, align 8, !tbaa !1781
  store i64 %2, ptr %6, align 8, !tbaa !4
  %7 = load ptr, ptr %4, align 8, !tbaa !2245
  %8 = load ptr, ptr %5, align 8, !tbaa !1781
  %9 = load i64, ptr %6, align 8, !tbaa !4
  call void @_ZNSt15__new_allocatorIPKN7rocksdb12_GLOBAL__N_18Repairer9TableInfoEE10deallocateEPS5_m(ptr noundef nonnull align 1 dereferenceable(1) %7, ptr noundef %8, i64 noundef %9)
  ret void
}

; Function Attrs: mustprogress nounwind uwtable
define internal void @_ZNSt12_Destroy_auxILb1EE9__destroyIPPKN7rocksdb12_GLOBAL__N_18Repairer9TableInfoEEEvT_S9_(ptr noundef %0, ptr noundef %1) #5 align 2 {
  %3 = alloca ptr, align 8
  %4 = alloca ptr, align 8
  store ptr %0, ptr %3, align 8, !tbaa !1781
  store ptr %1, ptr %4, align 8, !tbaa !1781
  ret void
}

; Function Attrs: mustprogress nounwind uwtable
define internal void @_ZNSt15__new_allocatorIPKN7rocksdb12_GLOBAL__N_18Repairer9TableInfoEED2Ev(ptr noundef nonnull align 1 dereferenceable(1) %0) unnamed_addr #5 align 2 {
  %2 = alloca ptr, align 8
  store ptr %0, ptr %2, align 8, !tbaa !2252
  ret void
}

; Function Attrs: mustprogress uwtable
define internal void @_ZNSt12_Vector_baseIPKN7rocksdb12_GLOBAL__N_18Repairer9TableInfoESaIS5_EE13_M_deallocateEPS5_m(ptr noundef nonnull align 8 dereferenceable(24) %0, ptr noundef %1, i64 noundef %2) #4 align 2 {
  %4 = alloca ptr, align 8
  %5 = alloca ptr, align 8
  %6 = alloca i64, align 8
  store ptr %0, ptr %4, align 8, !tbaa !2241
  store ptr %1, ptr %5, align 8, !tbaa !1781
  store i64 %2, ptr %6, align 8, !tbaa !4
  %7 = load ptr, ptr %4, align 8
  %8 = load ptr, ptr %5, align 8, !tbaa !1781
  %9 = icmp ne ptr %8, null
  br i1 %9, label %10, label %14

10:                                               ; preds = %3
  %11 = getelementptr inbounds nuw %"struct.std::_Vector_base.924", ptr %7, i32 0, i32 0
  %12 = load ptr, ptr %5, align 8, !tbaa !1781
  %13 = load i64, ptr %6, align 8, !tbaa !4
  call void @_ZNSt16allocator_traitsISaIPKN7rocksdb12_GLOBAL__N_18Repairer9TableInfoEEE10deallocateERS6_PS5_m(ptr noundef nonnull align 1 dereferenceable(1) %11, ptr noundef %12, i64 noundef %13)
  br label %14

14:                                               ; preds = %10, %3
  ret void
}

; Function Attrs: inlinehint mustprogress uwtable
define internal void @_ZSt8_DestroyIPPKN7rocksdb12_GLOBAL__N_18Repairer9TableInfoEEvT_S7_(ptr noundef %0, ptr noundef %1) #3 {
  %3 = alloca ptr, align 8
  %4 = alloca ptr, align 8
  store ptr %0, ptr %3, align 8, !tbaa !1781
  store ptr %1, ptr %4, align 8, !tbaa !1781
  %5 = load ptr, ptr %3, align 8, !tbaa !1781
  %6 = load ptr, ptr %4, align 8, !tbaa !1781
  call void @_ZNSt12_Destroy_auxILb1EE9__destroyIPPKN7rocksdb12_GLOBAL__N_18Repairer9TableInfoEEEvT_S9_(ptr noundef %5, ptr noundef %6)
  ret void
}

; Function Attrs: mustprogress nounwind uwtable
define internal void @_ZNSt12_Vector_baseIPKN7rocksdb12_GLOBAL__N_18Repairer9TableInfoESaIS5_EED2Ev(ptr noundef nonnull align 8 dereferenceable(24) %0) unnamed_addr #5 align 2 personality ptr @__gxx_personality_v0 {
  %2 = alloca ptr, align 8
  store ptr %0, ptr %2, align 8, !tbaa !2241
  %3 = load ptr, ptr %2, align 8
  %4 = getelementptr inbounds nuw %"struct.std::_Vector_base.924", ptr %3, i32 0, i32 0
  %5 = getelementptr inbounds nuw %"struct.std::_Vector_base<const rocksdb::(anonymous namespace)::Repairer::TableInfo *, std::allocator<const rocksdb::(anonymous namespace)::Repairer::TableInfo *>>::_Vector_impl_data", ptr %4, i32 0, i32 0
  %6 = load ptr, ptr %5, align 8, !tbaa !2249
  %7 = getelementptr inbounds nuw %"struct.std::_Vector_base.924", ptr %3, i32 0, i32 0
  %8 = getelementptr inbounds nuw %"struct.std::_Vector_base<const rocksdb::(anonymous namespace)::Repairer::TableInfo *, std::allocator<const rocksdb::(anonymous namespace)::Repairer::TableInfo *>>::_Vector_impl_data", ptr %7, i32 0, i32 2
  %9 = load ptr, ptr %8, align 8, !tbaa !2251
  %10 = getelementptr inbounds nuw %"struct.std::_Vector_base.924", ptr %3, i32 0, i32 0
  %11 = getelementptr inbounds nuw %"struct.std::_Vector_base<const rocksdb::(anonymous namespace)::Repairer::TableInfo *, std::allocator<const rocksdb::(anonymous namespace)::Repairer::TableInfo *>>::_Vector_impl_data", ptr %10, i32 0, i32 0
  %12 = load ptr, ptr %11, align 8, !tbaa !2249
  %13 = ptrtoint ptr %9 to i64
  %14 = ptrtoint ptr %12 to i64
  %15 = sub i64 %13, %14
  %16 = sdiv exact i64 %15, 8
  invoke void @_ZNSt12_Vector_baseIPKN7rocksdb12_GLOBAL__N_18Repairer9TableInfoESaIS5_EE13_M_deallocateEPS5_m(ptr noundef nonnull align 8 dereferenceable(24) %3, ptr noundef %6, i64 noundef %16)
          to label %17 unwind label %19

17:                                               ; preds = %1
  %18 = getelementptr inbounds nuw %"struct.std::_Vector_base.924", ptr %3, i32 0, i32 0
  call void @_ZNSt15__new_allocatorIPKN7rocksdb12_GLOBAL__N_18Repairer9TableInfoEED2Ev(ptr noundef nonnull align 8 dereferenceable(24) %18) #6
  ret void

19:                                               ; preds = %1
  %20 = landingpad { ptr, i32 }
          catch ptr null
  %21 = extractvalue { ptr, i32 } %20, 0
  call void @__clang_call_terminate(ptr %21) #25
  unreachable
}

; Function Attrs: inlinehint mustprogress uwtable
define internal void @_ZSt8_DestroyIPPKN7rocksdb12_GLOBAL__N_18Repairer9TableInfoES5_EvT_S7_RSaIT0_E(ptr noundef %0, ptr noundef %1, ptr noundef nonnull align 1 dereferenceable(1) %2) #3 {
  %4 = alloca ptr, align 8
  %5 = alloca ptr, align 8
  %6 = alloca ptr, align 8
  store ptr %0, ptr %4, align 8, !tbaa !1781
  store ptr %1, ptr %5, align 8, !tbaa !1781
  store ptr %2, ptr %6, align 8, !tbaa !2245
  %7 = load ptr, ptr %4, align 8, !tbaa !1781
  %8 = load ptr, ptr %5, align 8, !tbaa !1781
  call void @_ZSt8_DestroyIPPKN7rocksdb12_GLOBAL__N_18Repairer9TableInfoEEvT_S7_(ptr noundef %7, ptr noundef %8)
  ret void
}

; Function Attrs: mustprogress nounwind uwtable
define internal noundef nonnull align 1 dereferenceable(1) ptr @_ZNSt12_Vector_baseIPKN7rocksdb12_GLOBAL__N_18Repairer9TableInfoESaIS5_EE19_M_get_Tp_allocatorEv(ptr noundef nonnull align 8 dereferenceable(24) %0) #5 align 2 {
  %2 = alloca ptr, align 8
  store ptr %0, ptr %2, align 8, !tbaa !2241
  %3 = load ptr, ptr %2, align 8
  %4 = getelementptr inbounds nuw %"struct.std::_Vector_base.924", ptr %3, i32 0, i32 0
  ret ptr %4
}

; Function Attrs: mustprogress nounwind uwtable
define internal void @_ZNSt6vectorIPKN7rocksdb12_GLOBAL__N_18Repairer9TableInfoESaIS5_EED2Ev(ptr noundef nonnull align 8 dereferenceable(24) %0) unnamed_addr #5 align 2 personality ptr @__gxx_personality_v0 {
  %2 = alloca ptr, align 8
  store ptr %0, ptr %2, align 8, !tbaa !1100
  %3 = load ptr, ptr %2, align 8
  %4 = getelementptr inbounds nuw %"struct.std::_Vector_base.924", ptr %3, i32 0, i32 0
  %5 = getelementptr inbounds nuw %"struct.std::_Vector_base<const rocksdb::(anonymous namespace)::Repairer::TableInfo *, std::allocator<const rocksdb::(anonymous namespace)::Repairer::TableInfo *>>::_Vector_impl_data", ptr %4, i32 0, i32 0
  %6 = load ptr, ptr %5, align 8, !tbaa !2249
  %7 = getelementptr inbounds nuw %"struct.std::_Vector_base.924", ptr %3, i32 0, i32 0
  %8 = getelementptr inbounds nuw %"struct.std::_Vector_base<const rocksdb::(anonymous namespace)::Repairer::TableInfo *, std::allocator<const rocksdb::(anonymous namespace)::Repairer::TableInfo *>>::_Vector_impl_data", ptr %7, i32 0, i32 1
  %9 = load ptr, ptr %8, align 8, !tbaa !2250
  %10 = call noundef nonnull align 1 dereferenceable(1) ptr @_ZNSt12_Vector_baseIPKN7rocksdb12_GLOBAL__N_18Repairer9TableInfoESaIS5_EE19_M_get_Tp_allocatorEv(ptr noundef nonnull align 8 dereferenceable(24) %3) #6
  invoke void @_ZSt8_DestroyIPPKN7rocksdb12_GLOBAL__N_18Repairer9TableInfoES5_EvT_S7_RSaIT0_E(ptr noundef %6, ptr noundef %9, ptr noundef nonnull align 1 dereferenceable(1) %10)
          to label %11 unwind label %12

11:                                               ; preds = %1
  call void @_ZNSt12_Vector_baseIPKN7rocksdb12_GLOBAL__N_18Repairer9TableInfoESaIS5_EED2Ev(ptr noundef nonnull align 8 dereferenceable(24) %3) #6
  ret void

12:                                               ; preds = %1
  %13 = landingpad { ptr, i32 }
          catch ptr null
  %14 = extractvalue { ptr, i32 } %13, 0
  call void @__clang_call_terminate(ptr %14) #25
  unreachable
}

; Function Attrs: mustprogress nounwind uwtable
define internal void @_ZNSt15__new_allocatorINSt8__detail10_Hash_nodeISt4pairIKjSt6vectorIPKN7rocksdb12_GLOBAL__N_18Repairer9TableInfoESaISA_EEELb0EEEE10deallocateEPSE_m(ptr noundef nonnull align 1 dereferenceable(1) %0, ptr noundef %1, i64 noundef %2) #5 align 2 {
  %4 = alloca ptr, align 8
  %5 = alloca ptr, align 8
  %6 = alloca i64, align 8
  store ptr %0, ptr %4, align 8, !tbaa !2210
  store ptr %1, ptr %5, align 8, !tbaa !2214
  store i64 %2, ptr %6, align 8, !tbaa !4
  %7 = load ptr, ptr %5, align 8, !tbaa !2214
  %8 = load i64, ptr %6, align 8, !tbaa !4
  %9 = mul i64 %8, 40
  call void @_ZdlPvm(ptr noundef %7, i64 noundef %9) #28
  ret void
}

; Function Attrs: inlinehint mustprogress nounwind uwtable
define internal void @_ZNSt4pairIKjSt6vectorIPKN7rocksdb12_GLOBAL__N_18Repairer9TableInfoESaIS7_EEED2Ev(ptr noundef nonnull align 8 dereferenceable(32) %0) unnamed_addr #1 align 2 {
  %2 = alloca ptr, align 8
  store ptr %0, ptr %2, align 8, !tbaa !1086
  %3 = load ptr, ptr %2, align 8
  %4 = getelementptr inbounds nuw %"struct.std::pair.930", ptr %3, i32 0, i32 1
  call void @_ZNSt6vectorIPKN7rocksdb12_GLOBAL__N_18Repairer9TableInfoESaIS5_EED2Ev(ptr noundef nonnull align 8 dereferenceable(24) %4) #6
  ret void
}

; Function Attrs: mustprogress nounwind uwtable
define internal noundef ptr @_ZN9__gnu_cxx16__aligned_bufferISt4pairIKjSt6vectorIPKN7rocksdb12_GLOBAL__N_18Repairer9TableInfoESaIS9_EEEE7_M_addrEv(ptr noundef nonnull align 8 dereferenceable(32) %0) #5 align 2 {
  %2 = alloca ptr, align 8
  store ptr %0, ptr %2, align 8, !tbaa !2233
  %3 = load ptr, ptr %2, align 8
  %4 = getelementptr inbounds nuw %"struct.__gnu_cxx::__aligned_buffer.950", ptr %3, i32 0, i32 0
  ret ptr %4
}

; Function Attrs: mustprogress uwtable
define internal void @_ZNSt16allocator_traitsISaINSt8__detail10_Hash_nodeISt4pairIKjSt6vectorIPKN7rocksdb12_GLOBAL__N_18Repairer9TableInfoESaISA_EEELb0EEEEE10deallocateERSF_PSE_m(ptr noundef nonnull align 1 dereferenceable(1) %0, ptr noundef %1, i64 noundef %2) #4 align 2 {
  %4 = alloca ptr, align 8
  %5 = alloca ptr, align 8
  %6 = alloca i64, align 8
  store ptr %0, ptr %4, align 8, !tbaa !2208
  store ptr %1, ptr %5, align 8, !tbaa !2214
  store i64 %2, ptr %6, align 8, !tbaa !4
  %7 = load ptr, ptr %4, align 8, !tbaa !2208
  %8 = load ptr, ptr %5, align 8, !tbaa !2214
  %9 = load i64, ptr %6, align 8, !tbaa !4
  call void @_ZNSt15__new_allocatorINSt8__detail10_Hash_nodeISt4pairIKjSt6vectorIPKN7rocksdb12_GLOBAL__N_18Repairer9TableInfoESaISA_EEELb0EEEE10deallocateEPSE_m(ptr noundef nonnull align 1 dereferenceable(1) %7, ptr noundef %8, i64 noundef %9)
  ret void
}

; Function Attrs: mustprogress nounwind uwtable
define internal noundef ptr @_ZNSt19__ptr_traits_ptr_toIPNSt8__detail10_Hash_nodeISt4pairIKjSt6vectorIPKN7rocksdb12_GLOBAL__N_18Repairer9TableInfoESaISA_EEELb0EEESE_Lb0EE10pointer_toERSE_(ptr noundef nonnull align 8 dereferenceable(40) %0) #5 align 2 {
  %2 = alloca ptr, align 8
  store ptr %0, ptr %2, align 8, !tbaa !2214
  %3 = load ptr, ptr %2, align 8, !tbaa !2214
  ret ptr %3
}

; Function Attrs: mustprogress nounwind uwtable
define internal void @_ZNSt15__new_allocatorINSt8__detail10_Hash_nodeISt4pairIKjSt6vectorIPKN7rocksdb12_GLOBAL__N_18Repairer9TableInfoESaISA_EEELb0EEEE7destroyISD_EEvPT_(ptr noundef nonnull align 1 dereferenceable(1) %0, ptr noundef %1) #5 align 2 {
  %3 = alloca ptr, align 8
  %4 = alloca ptr, align 8
  store ptr %0, ptr %3, align 8, !tbaa !2210
  store ptr %1, ptr %4, align 8, !tbaa !1086
  %5 = load ptr, ptr %4, align 8, !tbaa !1086
  call void @_ZNSt4pairIKjSt6vectorIPKN7rocksdb12_GLOBAL__N_18Repairer9TableInfoESaIS7_EEED2Ev(ptr noundef nonnull align 8 dereferenceable(32) %5) #6
  ret void
}

; Function Attrs: mustprogress nounwind uwtable
define internal noundef ptr @_ZN9__gnu_cxx16__aligned_bufferISt4pairIKjSt6vectorIPKN7rocksdb12_GLOBAL__N_18Repairer9TableInfoESaIS9_EEEE6_M_ptrEv(ptr noundef nonnull align 8 dereferenceable(32) %0) #5 align 2 {
  %2 = alloca ptr, align 8
  store ptr %0, ptr %2, align 8, !tbaa !2233
  %3 = load ptr, ptr %2, align 8
  %4 = call noundef ptr @_ZN9__gnu_cxx16__aligned_bufferISt4pairIKjSt6vectorIPKN7rocksdb12_GLOBAL__N_18Repairer9TableInfoESaIS9_EEEE7_M_addrEv(ptr noundef nonnull align 8 dereferenceable(32) %3) #6
  ret ptr %4
}

; Function Attrs: mustprogress nounwind uwtable
define internal noundef nonnull align 1 dereferenceable(1) ptr @_ZNSt8__detail21_Hashtable_ebo_helperILi0ESaINS_10_Hash_nodeISt4pairIKjSt6vectorIPKN7rocksdb12_GLOBAL__N_18Repairer9TableInfoESaISA_EEELb0EEEELb1EE6_M_getEv(ptr noundef nonnull align 1 dereferenceable(1) %0) #5 align 2 {
  %2 = alloca ptr, align 8
  store ptr %0, ptr %2, align 8, !tbaa !2206
  %3 = load ptr, ptr %2, align 8
  ret ptr %3
}

; Function Attrs: mustprogress uwtable
define internal void @_ZNSt8__detail16_Hashtable_allocISaINS_10_Hash_nodeISt4pairIKjSt6vectorIPKN7rocksdb12_GLOBAL__N_18Repairer9TableInfoESaISA_EEELb0EEEEE22_M_deallocate_node_ptrEPSE_(ptr noundef nonnull align 1 dereferenceable(1) %0, ptr noundef %1) #4 align 2 {
  %3 = alloca ptr, align 8
  %4 = alloca ptr, align 8
  %5 = alloca ptr, align 8
  store ptr %0, ptr %3, align 8, !tbaa !2198
  store ptr %1, ptr %4, align 8, !tbaa !2214
  %6 = load ptr, ptr %3, align 8
  call void @llvm.lifetime.start.p0(i64 8, ptr %5) #6
  %7 = load ptr, ptr %4, align 8, !tbaa !2214
  %8 = call noundef ptr @_ZNSt19__ptr_traits_ptr_toIPNSt8__detail10_Hash_nodeISt4pairIKjSt6vectorIPKN7rocksdb12_GLOBAL__N_18Repairer9TableInfoESaISA_EEELb0EEESE_Lb0EE10pointer_toERSE_(ptr noundef nonnull align 8 dereferenceable(40) %7) #6
  store ptr %8, ptr %5, align 8, !tbaa !2214
  %9 = call noundef nonnull align 1 dereferenceable(1) ptr @_ZNSt8__detail16_Hashtable_allocISaINS_10_Hash_nodeISt4pairIKjSt6vectorIPKN7rocksdb12_GLOBAL__N_18Repairer9TableInfoESaISA_EEELb0EEEEE17_M_node_allocatorEv(ptr noundef nonnull align 1 dereferenceable(1) %6)
  %10 = load ptr, ptr %5, align 8, !tbaa !2214
  call void @_ZNSt16allocator_traitsISaINSt8__detail10_Hash_nodeISt4pairIKjSt6vectorIPKN7rocksdb12_GLOBAL__N_18Repairer9TableInfoESaISA_EEELb0EEEEE10deallocateERSF_PSE_m(ptr noundef nonnull align 1 dereferenceable(1) %9, ptr noundef %10, i64 noundef 1)
  call void @llvm.lifetime.end.p0(i64 8, ptr %5) #6
  ret void
}

; Function Attrs: mustprogress nounwind uwtable
define internal void @_ZNSt16allocator_traitsISaINSt8__detail10_Hash_nodeISt4pairIKjSt6vectorIPKN7rocksdb12_GLOBAL__N_18Repairer9TableInfoESaISA_EEELb0EEEEE7destroyISD_EEvRSF_PT_(ptr noundef nonnull align 1 dereferenceable(1) %0, ptr noundef %1) #5 align 2 {
  %3 = alloca ptr, align 8
  %4 = alloca ptr, align 8
  store ptr %0, ptr %3, align 8, !tbaa !2208
  store ptr %1, ptr %4, align 8, !tbaa !1086
  %5 = load ptr, ptr %3, align 8, !tbaa !2208
  %6 = load ptr, ptr %4, align 8, !tbaa !1086
  call void @_ZNSt15__new_allocatorINSt8__detail10_Hash_nodeISt4pairIKjSt6vectorIPKN7rocksdb12_GLOBAL__N_18Repairer9TableInfoESaISA_EEELb0EEEE7destroyISD_EEvPT_(ptr noundef nonnull align 1 dereferenceable(1) %5, ptr noundef %6) #6
  ret void
}

; Function Attrs: mustprogress nounwind uwtable
define internal noundef ptr @_ZNSt8__detail21_Hash_node_value_baseISt4pairIKjSt6vectorIPKN7rocksdb12_GLOBAL__N_18Repairer9TableInfoESaIS9_EEEE9_M_valptrEv(ptr noundef nonnull align 8 dereferenceable(32) %0) #5 align 2 {
  %2 = alloca ptr, align 8
  store ptr %0, ptr %2, align 8, !tbaa !2217
  %3 = load ptr, ptr %2, align 8
  %4 = getelementptr inbounds nuw %"struct.std::__detail::_Hash_node_value_base.949", ptr %3, i32 0, i32 0
  %5 = call noundef ptr @_ZN9__gnu_cxx16__aligned_bufferISt4pairIKjSt6vectorIPKN7rocksdb12_GLOBAL__N_18Repairer9TableInfoESaIS9_EEEE6_M_ptrEv(ptr noundef nonnull align 8 dereferenceable(32) %4) #6
  ret ptr %5
}

; Function Attrs: mustprogress uwtable
define internal noundef nonnull align 1 dereferenceable(1) ptr @_ZNSt8__detail16_Hashtable_allocISaINS_10_Hash_nodeISt4pairIKjSt6vectorIPKN7rocksdb12_GLOBAL__N_18Repairer9TableInfoESaISA_EEELb0EEEEE17_M_node_allocatorEv(ptr noundef nonnull align 1 dereferenceable(1) %0) #4 align 2 {
  %2 = alloca ptr, align 8
  store ptr %0, ptr %2, align 8, !tbaa !2198
  %3 = load ptr, ptr %2, align 8
  %4 = call noundef nonnull align 1 dereferenceable(1) ptr @_ZNSt8__detail21_Hashtable_ebo_helperILi0ESaINS_10_Hash_nodeISt4pairIKjSt6vectorIPKN7rocksdb12_GLOBAL__N_18Repairer9TableInfoESaISA_EEELb0EEEELb1EE6_M_getEv(ptr noundef nonnull align 1 dereferenceable(1) %3)
  ret ptr %4
}

; Function Attrs: noinline noreturn nounwind uwtable
define linkonce_odr hidden void @__clang_call_terminate(ptr noundef %0) #11 comdat {
  %2 = call ptr @__cxa_begin_catch(ptr %0) #6
  call void @_ZSt9terminatev() #25
  unreachable
}

; Function Attrs: mustprogress uwtable
define internal void @_ZNSt8__detail16_Hashtable_allocISaINS_10_Hash_nodeISt4pairIKjSt6vectorIPKN7rocksdb12_GLOBAL__N_18Repairer9TableInfoESaISA_EEELb0EEEEE18_M_deallocate_nodeEPSE_(ptr noundef nonnull align 1 dereferenceable(1) %0, ptr noundef %1) #4 align 2 {
  %3 = alloca ptr, align 8
  %4 = alloca ptr, align 8
  store ptr %0, ptr %3, align 8, !tbaa !2198
  store ptr %1, ptr %4, align 8, !tbaa !2214
  %5 = load ptr, ptr %3, align 8
  %6 = call noundef nonnull align 1 dereferenceable(1) ptr @_ZNSt8__detail16_Hashtable_allocISaINS_10_Hash_nodeISt4pairIKjSt6vectorIPKN7rocksdb12_GLOBAL__N_18Repairer9TableInfoESaISA_EEELb0EEEEE17_M_node_allocatorEv(ptr noundef nonnull align 1 dereferenceable(1) %5)
  %7 = load ptr, ptr %4, align 8, !tbaa !2214
  %8 = getelementptr inbounds i8, ptr %7, i64 8
  %9 = call noundef ptr @_ZNSt8__detail21_Hash_node_value_baseISt4pairIKjSt6vectorIPKN7rocksdb12_GLOBAL__N_18Repairer9TableInfoESaIS9_EEEE9_M_valptrEv(ptr noundef nonnull align 8 dereferenceable(32) %8) #6
  call void @_ZNSt16allocator_traitsISaINSt8__detail10_Hash_nodeISt4pairIKjSt6vectorIPKN7rocksdb12_GLOBAL__N_18Repairer9TableInfoESaISA_EEELb0EEEEE7destroyISD_EEvRSF_PT_(ptr noundef nonnull align 1 dereferenceable(1) %6, ptr noundef %9) #6
  %10 = load ptr, ptr %4, align 8, !tbaa !2214
  call void @_ZNSt8__detail16_Hashtable_allocISaINS_10_Hash_nodeISt4pairIKjSt6vectorIPKN7rocksdb12_GLOBAL__N_18Repairer9TableInfoESaISA_EEELb0EEEEE22_M_deallocate_node_ptrEPSE_(ptr noundef nonnull align 1 dereferenceable(1) %5, ptr noundef %10)
  ret void
}

; Function Attrs: mustprogress nounwind uwtable
define internal void @_ZNSt10_HashtableIjSt4pairIKjSt6vectorIPKN7rocksdb12_GLOBAL__N_18Repairer9TableInfoESaIS8_EEESaISB_ENSt8__detail10_Select1stESt8equal_toIjESt4hashIjENSD_18_Mod_range_hashingENSD_20_Default_ranged_hashENSD_20_Prime_rehash_policyENSD_17_Hashtable_traitsILb0ELb0ELb1EEEE12_Scoped_nodeD2Ev(ptr noundef nonnull align 8 dereferenceable(16) %0) unnamed_addr #5 align 2 personality ptr @__gxx_personality_v0 {
  %2 = alloca ptr, align 8
  store ptr %0, ptr %2, align 8, !tbaa !2221
  %3 = load ptr, ptr %2, align 8
  %4 = getelementptr inbounds nuw %"struct.std::_Hashtable<unsigned int, std::pair<const unsigned int, std::vector<const rocksdb::(anonymous namespace)::Repairer::TableInfo *>>, std::allocator<std::pair<const unsigned int, std::vector<const rocksdb::(anonymous namespace)::Repairer::TableInfo *>>>, std::__detail::_Select1st, std::equal_to<unsigned int>, std::hash<unsigned int>, std::__detail::_Mod_range_hashing, std::__detail::_Default_ranged_hash, std::__detail::_Prime_rehash_policy, std::__detail::_Hashtable_traits<false, false, true>>::_Scoped_node", ptr %3, i32 0, i32 1
  %5 = load ptr, ptr %4, align 8, !tbaa !2215
  %6 = icmp ne ptr %5, null
  br i1 %6, label %7, label %13

7:                                                ; preds = %1
  %8 = getelementptr inbounds nuw %"struct.std::_Hashtable<unsigned int, std::pair<const unsigned int, std::vector<const rocksdb::(anonymous namespace)::Repairer::TableInfo *>>, std::allocator<std::pair<const unsigned int, std::vector<const rocksdb::(anonymous namespace)::Repairer::TableInfo *>>>, std::__detail::_Select1st, std::equal_to<unsigned int>, std::hash<unsigned int>, std::__detail::_Mod_range_hashing, std::__detail::_Default_ranged_hash, std::__detail::_Prime_rehash_policy, std::__detail::_Hashtable_traits<false, false, true>>::_Scoped_node", ptr %3, i32 0, i32 0
  %9 = load ptr, ptr %8, align 8, !tbaa !2223
  %10 = getelementptr inbounds nuw %"struct.std::_Hashtable<unsigned int, std::pair<const unsigned int, std::vector<const rocksdb::(anonymous namespace)::Repairer::TableInfo *>>, std::allocator<std::pair<const unsigned int, std::vector<const rocksdb::(anonymous namespace)::Repairer::TableInfo *>>>, std::__detail::_Select1st, std::equal_to<unsigned int>, std::hash<unsigned int>, std::__detail::_Mod_range_hashing, std::__detail::_Default_ranged_hash, std::__detail::_Prime_rehash_policy, std::__detail::_Hashtable_traits<false, false, true>>::_Scoped_node", ptr %3, i32 0, i32 1
  %11 = load ptr, ptr %10, align 8, !tbaa !2215
  invoke void @_ZNSt8__detail16_Hashtable_allocISaINS_10_Hash_nodeISt4pairIKjSt6vectorIPKN7rocksdb12_GLOBAL__N_18Repairer9TableInfoESaISA_EEELb0EEEEE18_M_deallocate_nodeEPSE_(ptr noundef nonnull align 1 dereferenceable(1) %9, ptr noundef %11)
          to label %12 unwind label %14

12:                                               ; preds = %7
  br label %13

13:                                               ; preds = %12, %1
  ret void

14:                                               ; preds = %7
  %15 = landingpad { ptr, i32 }
          catch ptr null
  %16 = extractvalue { ptr, i32 } %15, 0
  call void @__clang_call_terminate(ptr %16) #25
  unreachable
}