; Function Attrs: mustprogress nounwind uwtable
define internal fastcc void @_ZNSt10_HashtableIjSt4pairIKjSt6vectorIPKN7rocksdb12_GLOBAL__N_18Repairer9TableInfoESaIS8_EEESaISB_ENSt8__detail10_Select1stESt8equal_toIjESt4hashIjENSD_18_Mod_range_hashingENSD_20_Default_ranged_hashENSD_20_Prime_rehash_policyENSD_17_Hashtable_traitsILb0ELb0ELb1EEEE12_Scoped_nodeD2Ev(ptr %.8.val) unnamed_addr #2 align 2 personality ptr @__gxx_personality_v0 {
  %.not = icmp eq ptr %.8.val, null
  br i1 %.not, label %8, label %1

1:                                                ; preds = %0
  %2 = getelementptr i8, ptr %.8.val, i64 16
  %.val.i = load ptr, ptr %2, align 8
  %.not.i.i.i.i.i.i.i = icmp eq ptr %.val.i, null
  br i1 %.not.i.i.i.i.i.i.i, label %_ZNSt8__detail16_Hashtable_allocISaINS_10_Hash_nodeISt4pairIKjSt6vectorIPKN7rocksdb12_GLOBAL__N_18Repairer9TableInfoESaISA_EEELb0EEEEE18_M_deallocate_nodeEPSE_.exit, label %3

3:                                                ; preds = %1
  %4 = getelementptr i8, ptr %.8.val, i64 32
  %.val3.i = load ptr, ptr %4, align 8
  %5 = ptrtoint ptr %.val3.i to i64
  %6 = ptrtoint ptr %.val.i to i64
  %7 = sub i64 %5, %6
  tail call void @_ZdlPvm(ptr noundef nonnull %.val.i, i64 noundef %7) #27
  br label %_ZNSt8__detail16_Hashtable_allocISaINS_10_Hash_nodeISt4pairIKjSt6vectorIPKN7rocksdb12_GLOBAL__N_18Repairer9TableInfoESaISA_EEELb0EEEEE18_M_deallocate_nodeEPSE_.exit

_ZNSt8__detail16_Hashtable_allocISaINS_10_Hash_nodeISt4pairIKjSt6vectorIPKN7rocksdb12_GLOBAL__N_18Repairer9TableInfoESaISA_EEELb0EEEEE18_M_deallocate_nodeEPSE_.exit: ; preds = %1, %3
  tail call void @_ZdlPvm(ptr noundef nonnull %.8.val, i64 noundef 40) #27
  br label %8

8:                                                ; preds = %_ZNSt8__detail16_Hashtable_allocISaINS_10_Hash_nodeISt4pairIKjSt6vectorIPKN7rocksdb12_GLOBAL__N_18Repairer9TableInfoESaISA_EEELb0EEEEE18_M_deallocate_nodeEPSE_.exit, %0
  ret void
}